target datalayout = "e-m:e-p270:32:32-p271:32:32-p272:64:64-i64:64-i128:128-f80:128-n8:16:32:64-S128"
target triple = "x86_64-pc-linux-gnu"

%struct.cli_htu32 = type { ptr, i64, i64, i64 }

; Function Attrs: nounwind uwtable
define void @cli_htu32_clear(ptr noundef %0) #0 {
  %2 = alloca ptr, align 8
  store ptr %0, ptr %2, align 8
  %3 = load ptr, ptr %2, align 8
  %4 = getelementptr inbounds %struct.cli_htu32, ptr %3, i32 0, i32 0
  %5 = load ptr, ptr %4, align 8
  %6 = icmp ne ptr %5, null
  br i1 %6, label %7, label %15

7:                                                ; preds = %1
  %8 = load ptr, ptr %2, align 8
  %9 = getelementptr inbounds %struct.cli_htu32, ptr %8, i32 0, i32 0
  %10 = load ptr, ptr %9, align 8
  %11 = load ptr, ptr %2, align 8
  %12 = getelementptr inbounds %struct.cli_htu32, ptr %11, i32 0, i32 1
  %13 = load i64, ptr %12, align 8
  %14 = mul i64 %13, 16
  call void @llvm.memset.p0.i64(ptr align 8 %10, i8 0, i64 %14, i1 false)
  br label %15

15:                                               ; preds = %7, %1
  %16 = load ptr, ptr %2, align 8
  %17 = getelementptr inbounds %struct.cli_htu32, ptr %16, i32 0, i32 2
  store i64 0, ptr %17, align 8
  ret void
}