; Function Attrs: mustprogress nofree norecurse nosync nounwind willreturn memory(write, argmem: readwrite, inaccessiblemem: none) uwtable
define void @cli_htu32_clear(ptr nocapture noundef %0) local_unnamed_addr #10 {
  %2 = load ptr, ptr %0, align 8
  %.not = icmp eq ptr %2, null
  br i1 %.not, label %7, label %3

3:                                                ; preds = %1
  %4 = getelementptr inbounds i8, ptr %0, i64 8
  %5 = load i64, ptr %4, align 8
  %6 = shl i64 %5, 4
  tail call void @llvm.memset.p0.i64(ptr nonnull align 8 %2, i8 0, i64 %6, i1 false)
  br label %7

7:                                                ; preds = %3, %1
  %8 = getelementptr inbounds i8, ptr %0, i64 16
  store i64 0, ptr %8, align 8
  ret void
}